; Function Attrs: nounwind sspstrong uwtable
define internal i64 @ossl_bn_abs(i64 noundef %0) #0 {
  %2 = tail call ptr @rb_check_typeddata(i64 noundef %0, ptr noundef nonnull @ossl_bn_type) #11
  %.not = icmp eq ptr %2, null
  br i1 %.not, label %3, label %5

3:                                                ; preds = %1
  %4 = load i64, ptr @rb_eRuntimeError, align 8, !tbaa !6
  tail call void (i64, ptr, ...) @ossl_raise(i64 noundef %4, ptr noundef nonnull @.str) #12
  unreachable

5:                                                ; preds = %1
  %6 = tail call i32 @BN_is_negative(ptr noundef nonnull %2) #11
  %.not6 = icmp eq i32 %6, 0
  br i1 %.not6, label %9, label %7

7:                                                ; preds = %5
  %8 = tail call i64 @ossl_bn_uminus(i64 noundef %0)
  br label %21

9:                                                ; preds = %5
  %10 = tail call ptr @rb_check_typeddata(i64 noundef %0, ptr noundef nonnull @ossl_bn_type) #11
  %.not.i = icmp eq ptr %10, null
  br i1 %.not.i, label %11, label %13

11:                                               ; preds = %9
  %12 = load i64, ptr @rb_eRuntimeError, align 8, !tbaa !6
  tail call void (i64, ptr, ...) @ossl_raise(i64 noundef %12, ptr noundef nonnull @.str) #12
  unreachable

13:                                               ; preds = %9
  %14 = load i64, ptr @cBN, align 8, !tbaa !6
  %15 = tail call i64 @rb_data_typed_object_wrap(i64 noundef %14, ptr noundef null, ptr noundef nonnull @ossl_bn_type) #11
  %16 = tail call ptr @BN_dup(ptr noundef nonnull %10) #11
  %.not8.i = icmp eq ptr %16, null
  br i1 %.not8.i, label %17, label %ossl_bn_uplus.exit

17:                                               ; preds = %13
  %18 = load i64, ptr @eBNError, align 8, !tbaa !6
  tail call void (i64, ptr, ...) @ossl_raise(i64 noundef %18, ptr noundef nonnull @.str.68) #12
  unreachable

ossl_bn_uplus.exit:                               ; preds = %13
  %19 = inttoptr i64 %15 to ptr
  %20 = getelementptr inbounds nuw i8, ptr %19, i64 32
  store ptr %16, ptr %20, align 8, !tbaa !10
  br label %21

21:                                               ; preds = %ossl_bn_uplus.exit, %7
  %.0 = phi i64 [ %8, %7 ], [ %15, %ossl_bn_uplus.exit ]
  ret i64 %.0
}